target datalayout = "e-m:e-p270:32:32-p271:32:32-p272:64:64-i64:64-i128:128-f80:128-n8:16:32:64-S128"
target triple = "x86_64-pc-linux-gnu"

%struct.rb_control_frame_struct = type { ptr, ptr, ptr, i64, ptr, ptr, ptr }
%struct.rb_callinfo = type { i64, ptr, i64, i64, i64 }
%struct.rb_calling_info = type { ptr, ptr, i64, i64, i32, i8, i64 }
%struct.rb_callinfo_kwarg = type { i32, i32, [0 x i64] }

@rb_eArgError = external global i64, align 8
@.str.161 = private unnamed_addr constant [18 x i8] c"no receiver given\00", align 1

; Function Attrs: inlinehint nounwind sspstrong uwtable
define internal zeroext i1 @vm_ci_packed_p(ptr noundef %0) #2 {
  %2 = alloca i1, align 1
  %3 = alloca ptr, align 8
  store ptr %0, ptr %3, align 8, !tbaa !142
  %4 = load ptr, ptr %3, align 8, !tbaa !142
  %5 = ptrtoint ptr %4 to i64
  %6 = and i64 %5, 1
  %7 = icmp ne i64 %6, 0
  %8 = xor i1 %7, true
  %9 = xor i1 %8, true
  %10 = zext i1 %9 to i32
  %11 = sext i32 %10 to i64
  %12 = call i64 @llvm.expect.i64(i64 %11, i64 1)
  %13 = icmp ne i64 %12, 0
  br i1 %13, label %14, label %15

14:                                               ; preds = %1
  store i1 true, ptr %2, align 1
  br label %16

15:                                               ; preds = %1
  store i1 false, ptr %2, align 1
  br label %16

16:                                               ; preds = %15, %14
  %17 = load i1, ptr %2, align 1
  ret i1 %17
}

; Function Attrs: inlinehint nounwind sspstrong uwtable
define internal ptr @vm_ci_kwarg(ptr noundef %0) #2 {
  %2 = alloca ptr, align 8
  %3 = alloca ptr, align 8
  store ptr %0, ptr %3, align 8, !tbaa !142
  %4 = load ptr, ptr %3, align 8, !tbaa !142
  %5 = call zeroext i1 @vm_ci_packed_p(ptr noundef %4)
  br i1 %5, label %6, label %7

6:                                                ; preds = %1
  store ptr null, ptr %2, align 8
  br label %11

7:                                                ; preds = %1
  %8 = load ptr, ptr %3, align 8, !tbaa !142
  %9 = getelementptr inbounds nuw %struct.rb_callinfo, ptr %8, i32 0, i32 1
  %10 = load ptr, ptr %9, align 8, !tbaa !208
  store ptr %10, ptr %2, align 8
  br label %11

11:                                               ; preds = %7, %6
  %12 = load ptr, ptr %2, align 8
  ret ptr %12
}

; Function Attrs: inlinehint nounwind sspstrong uwtable
define internal i32 @vm_ci_flag(ptr noundef %0) #2 {
  %2 = alloca i32, align 4
  %3 = alloca ptr, align 8
  store ptr %0, ptr %3, align 8, !tbaa !142
  %4 = load ptr, ptr %3, align 8, !tbaa !142
  %5 = call zeroext i1 @vm_ci_packed_p(ptr noundef %4)
  br i1 %5, label %6, label %12

6:                                                ; preds = %1
  %7 = load ptr, ptr %3, align 8, !tbaa !142
  %8 = ptrtoint ptr %7 to i64
  %9 = lshr i64 %8, 16
  %10 = and i64 %9, 65535
  %11 = trunc i64 %10 to i32
  store i32 %11, ptr %2, align 4
  br label %17

12:                                               ; preds = %1
  %13 = load ptr, ptr %3, align 8, !tbaa !142
  %14 = getelementptr inbounds nuw %struct.rb_callinfo, ptr %13, i32 0, i32 3
  %15 = load i64, ptr %14, align 8, !tbaa !171
  %16 = trunc i64 %15 to i32
  store i32 %16, ptr %2, align 4
  br label %17

17:                                               ; preds = %12, %6
  %18 = load i32, ptr %2, align 4
  ret i32 %18
}

; Function Attrs: inlinehint nounwind sspstrong uwtable
define internal i64 @VM_BH_TO_SYMBOL(i64 noundef %0) #2 {
  %2 = alloca i64, align 8
  store i64 %0, ptr %2, align 8, !tbaa !31
  %3 = load i64, ptr %2, align 8, !tbaa !31
  ret i64 %3
}

; Function Attrs: nounwind sspstrong uwtable
define internal i64 @vm_invoke_symbol_block(ptr noundef %0, ptr noundef %1, ptr noundef %2, ptr noundef %3, i1 noundef zeroext %4, i64 noundef %5) #0 {
  %7 = alloca ptr, align 8
  %8 = alloca ptr, align 8
  %9 = alloca ptr, align 8
  %10 = alloca ptr, align 8
  %11 = alloca i8, align 1
  %12 = alloca i64, align 8
  %13 = alloca i64, align 8
  %14 = alloca i32, align 4
  store ptr %0, ptr %7, align 8, !tbaa !33
  store ptr %1, ptr %8, align 8, !tbaa !14
  store ptr %2, ptr %9, align 8, !tbaa !186
  store ptr %3, ptr %10, align 8, !tbaa !142
  %15 = zext i1 %4 to i8
  store i8 %15, ptr %11, align 1, !tbaa !55
  store i64 %5, ptr %12, align 8, !tbaa !31
  call void @llvm.lifetime.start.p0(i64 8, ptr %13) #21
  %16 = load i64, ptr %12, align 8, !tbaa !31
  %17 = call i64 @VM_BH_TO_SYMBOL(i64 noundef %16)
  store i64 %17, ptr %13, align 8, !tbaa !31
  call void @llvm.lifetime.start.p0(i64 4, ptr %14) #21
  %18 = load ptr, ptr %10, align 8, !tbaa !142
  %19 = call i32 @vm_ci_flag(ptr noundef %18)
  store i32 %19, ptr %14, align 4, !tbaa !24
  %20 = load i32, ptr %14, align 4, !tbaa !24
  %21 = and i32 %20, 16
  %22 = icmp ne i32 %21, 0
  br i1 %22, label %67, label %23

23:                                               ; preds = %6
  %24 = load ptr, ptr %9, align 8, !tbaa !186
  %25 = getelementptr inbounds nuw %struct.rb_calling_info, ptr %24, i32 0, i32 4
  %26 = load i32, ptr %25, align 8, !tbaa !219
  %27 = icmp eq i32 %26, 0
  br i1 %27, label %65, label %28

28:                                               ; preds = %23
  %29 = load ptr, ptr %9, align 8, !tbaa !186
  %30 = getelementptr inbounds nuw %struct.rb_calling_info, ptr %29, i32 0, i32 4
  %31 = load i32, ptr %30, align 8, !tbaa !219
  %32 = icmp eq i32 %31, 1
  br i1 %32, label %33, label %37

33:                                               ; preds = %28
  %34 = load i32, ptr %14, align 4, !tbaa !24
  %35 = and i32 %34, 65
  %36 = icmp ne i32 %35, 0
  br i1 %36, label %65, label %37

37:                                               ; preds = %33, %28
  %38 = load ptr, ptr %9, align 8, !tbaa !186
  %39 = getelementptr inbounds nuw %struct.rb_calling_info, ptr %38, i32 0, i32 4
  %40 = load i32, ptr %39, align 8, !tbaa !219
  %41 = icmp eq i32 %40, 2
  br i1 %41, label %42, label %50

42:                                               ; preds = %37
  %43 = load i32, ptr %14, align 4, !tbaa !24
  %44 = and i32 %43, 1
  %45 = icmp ne i32 %44, 0
  br i1 %45, label %46, label %50

46:                                               ; preds = %42
  %47 = load i32, ptr %14, align 4, !tbaa !24
  %48 = and i32 %47, 64
  %49 = icmp ne i32 %48, 0
  br i1 %49, label %65, label %50

50:                                               ; preds = %46, %42, %37
  %51 = load i32, ptr %14, align 4, !tbaa !24
  %52 = and i32 %51, 32
  %53 = icmp ne i32 %52, 0
  br i1 %53, label %54, label %63

54:                                               ; preds = %50
  %55 = load ptr, ptr %10, align 8, !tbaa !142
  %56 = call ptr @vm_ci_kwarg(ptr noundef %55)
  %57 = getelementptr inbounds nuw %struct.rb_callinfo_kwarg, ptr %56, i32 0, i32 0
  %58 = load i32, ptr %57, align 8, !tbaa !24
  %59 = load ptr, ptr %9, align 8, !tbaa !186
  %60 = getelementptr inbounds nuw %struct.rb_calling_info, ptr %59, i32 0, i32 4
  %61 = load i32, ptr %60, align 8, !tbaa !219
  %62 = icmp eq i32 %58, %61
  br label %63

63:                                               ; preds = %54, %50
  %64 = phi i1 [ false, %50 ], [ %62, %54 ]
  br label %65

65:                                               ; preds = %63, %46, %33, %23
  %66 = phi i1 [ true, %46 ], [ true, %33 ], [ true, %23 ], [ %64, %63 ]
  br label %67

67:                                               ; preds = %65, %6
  %68 = phi i1 [ false, %6 ], [ %66, %65 ]
  %69 = xor i1 %68, true
  %70 = xor i1 %69, true
  %71 = zext i1 %70 to i32
  %72 = sext i32 %71 to i64
  %73 = call i64 @llvm.expect.i64(i64 %72, i64 0)
  %74 = icmp ne i64 %73, 0
  br i1 %74, label %75, label %149

75:                                               ; preds = %67
  %76 = load ptr, ptr %8, align 8, !tbaa !14
  %77 = load ptr, ptr %9, align 8, !tbaa !186
  %78 = load ptr, ptr %10, align 8, !tbaa !142
  call void @CALLER_SETUP_ARG(ptr noundef %76, ptr noundef %77, ptr noundef %78, i32 noundef -2)
  store i32 0, ptr %14, align 4, !tbaa !24
  %79 = load ptr, ptr %9, align 8, !tbaa !186
  %80 = getelementptr inbounds nuw %struct.rb_calling_info, ptr %79, i32 0, i32 6
  %81 = load i64, ptr %80, align 8, !tbaa !221
  %82 = icmp ne i64 %81, 0
  %83 = xor i1 %82, true
  %84 = xor i1 %83, true
  %85 = zext i1 %84 to i32
  %86 = sext i32 %85 to i64
  %87 = call i64 @llvm.expect.i64(i64 %86, i64 0)
  %88 = icmp ne i64 %87, 0
  br i1 %88, label %89, label %118

89:                                               ; preds = %75
  %90 = load ptr, ptr %9, align 8, !tbaa !186
  %91 = getelementptr inbounds nuw %struct.rb_calling_info, ptr %90, i32 0, i32 6
  %92 = load i64, ptr %91, align 8, !tbaa !221
  %93 = call i64 @rb_ary_shift(i64 noundef %92)
  %94 = load ptr, ptr %9, align 8, !tbaa !186
  %95 = getelementptr inbounds nuw %struct.rb_calling_info, ptr %94, i32 0, i32 3
  store i64 %93, ptr %95, align 8, !tbaa !218
  %96 = load ptr, ptr %8, align 8, !tbaa !14
  %97 = getelementptr inbounds nuw %struct.rb_control_frame_struct, ptr %96, i32 0, i32 1
  %98 = load ptr, ptr %97, align 8, !tbaa !101
  %99 = getelementptr i64, ptr %98, i32 1
  store ptr %99, ptr %97, align 8, !tbaa !101
  %100 = load ptr, ptr %8, align 8, !tbaa !14
  %101 = getelementptr inbounds nuw %struct.rb_control_frame_struct, ptr %100, i32 0, i32 1
  %102 = load ptr, ptr %101, align 8, !tbaa !101
  %103 = getelementptr i64, ptr %102, i64 -2
  %104 = load i64, ptr %103, align 8, !tbaa !31
  %105 = load ptr, ptr %8, align 8, !tbaa !14
  %106 = getelementptr inbounds nuw %struct.rb_control_frame_struct, ptr %105, i32 0, i32 1
  %107 = load ptr, ptr %106, align 8, !tbaa !101
  %108 = getelementptr i64, ptr %107, i64 -1
  store i64 %104, ptr %108, align 8, !tbaa !31
  %109 = load ptr, ptr %9, align 8, !tbaa !186
  %110 = getelementptr inbounds nuw %struct.rb_calling_info, ptr %109, i32 0, i32 3
  %111 = load i64, ptr %110, align 8, !tbaa !218
  %112 = load ptr, ptr %8, align 8, !tbaa !14
  %113 = getelementptr inbounds nuw %struct.rb_control_frame_struct, ptr %112, i32 0, i32 1
  %114 = load ptr, ptr %113, align 8, !tbaa !101
  %115 = getelementptr i64, ptr %114, i64 -2
  store i64 %111, ptr %115, align 8, !tbaa !31
  %116 = load i32, ptr %14, align 4, !tbaa !24
  %117 = or i32 %116, 1
  store i32 %117, ptr %14, align 4, !tbaa !24
  br label %140

118:                                              ; preds = %75
  %119 = load ptr, ptr %9, align 8, !tbaa !186
  %120 = getelementptr inbounds nuw %struct.rb_calling_info, ptr %119, i32 0, i32 4
  %121 = load i32, ptr %120, align 8, !tbaa !219
  %122 = icmp slt i32 %121, 1
  br i1 %122, label %123, label %125

123:                                              ; preds = %118
  %124 = load i64, ptr @rb_eArgError, align 8, !tbaa !31
  call void (i64, ptr, ...) @rb_raise(i64 noundef %124, ptr noundef @.str.161) #38
  unreachable

125:                                              ; preds = %118
  %126 = load ptr, ptr %8, align 8, !tbaa !14
  %127 = getelementptr inbounds nuw %struct.rb_control_frame_struct, ptr %126, i32 0, i32 1
  %128 = load ptr, ptr %127, align 8, !tbaa !101
  %129 = load ptr, ptr %9, align 8, !tbaa !186
  %130 = getelementptr inbounds nuw %struct.rb_calling_info, ptr %129, i32 0, i32 4
  %131 = load i32, ptr %130, align 8, !tbaa !219
  %132 = add i32 %131, -1
  store i32 %132, ptr %130, align 8, !tbaa !219
  %133 = sext i32 %132 to i64
  %134 = sub i64 0, %133
  %135 = getelementptr i64, ptr %128, i64 %134
  %136 = getelementptr i64, ptr %135, i64 -1
  %137 = load i64, ptr %136, align 8, !tbaa !31
  %138 = load ptr, ptr %9, align 8, !tbaa !186
  %139 = getelementptr inbounds nuw %struct.rb_calling_info, ptr %138, i32 0, i32 3
  store i64 %137, ptr %139, align 8, !tbaa !218
  br label %140

140:                                              ; preds = %125, %89
  %141 = load ptr, ptr %9, align 8, !tbaa !186
  %142 = getelementptr inbounds nuw %struct.rb_calling_info, ptr %141, i32 0, i32 5
  %143 = load i8, ptr %142, align 4, !tbaa !220, !range !121, !noundef !122
  %144 = trunc i8 %143 to i1
  br i1 %144, label %145, label %148

145:                                              ; preds = %140
  %146 = load i32, ptr %14, align 4, !tbaa !24
  %147 = or i32 %146, 64
  store i32 %147, ptr %14, align 4, !tbaa !24
  br label %148

148:                                              ; preds = %145, %140
  br label %171

149:                                              ; preds = %67
  %150 = load ptr, ptr %9, align 8, !tbaa !186
  %151 = getelementptr inbounds nuw %struct.rb_calling_info, ptr %150, i32 0, i32 4
  %152 = load i32, ptr %151, align 8, !tbaa !219
  %153 = icmp slt i32 %152, 1
  br i1 %153, label %154, label %156

154:                                              ; preds = %149
  %155 = load i64, ptr @rb_eArgError, align 8, !tbaa !31
  call void (i64, ptr, ...) @rb_raise(i64 noundef %155, ptr noundef @.str.161) #38
  unreachable

156:                                              ; preds = %149
  %157 = load ptr, ptr %8, align 8, !tbaa !14
  %158 = getelementptr inbounds nuw %struct.rb_control_frame_struct, ptr %157, i32 0, i32 1
  %159 = load ptr, ptr %158, align 8, !tbaa !101
  %160 = load ptr, ptr %9, align 8, !tbaa !186
  %161 = getelementptr inbounds nuw %struct.rb_calling_info, ptr %160, i32 0, i32 4
  %162 = load i32, ptr %161, align 8, !tbaa !219
  %163 = add i32 %162, -1
  store i32 %163, ptr %161, align 8, !tbaa !219
  %164 = sext i32 %163 to i64
  %165 = sub i64 0, %164
  %166 = getelementptr i64, ptr %159, i64 %165
  %167 = getelementptr i64, ptr %166, i64 -1
  %168 = load i64, ptr %167, align 8, !tbaa !31
  %169 = load ptr, ptr %9, align 8, !tbaa !186
  %170 = getelementptr inbounds nuw %struct.rb_calling_info, ptr %169, i32 0, i32 3
  store i64 %168, ptr %170, align 8, !tbaa !218
  br label %171

171:                                              ; preds = %156, %148
  %172 = load ptr, ptr %7, align 8, !tbaa !33
  %173 = load ptr, ptr %8, align 8, !tbaa !14
  %174 = load ptr, ptr %9, align 8, !tbaa !186
  %175 = load ptr, ptr %10, align 8, !tbaa !142
  %176 = load i64, ptr %13, align 8, !tbaa !31
  %177 = load i32, ptr %14, align 4, !tbaa !24
  %178 = call i64 @vm_call_symbol(ptr noundef %172, ptr noundef %173, ptr noundef %174, ptr noundef %175, i64 noundef %176, i32 noundef %177)
  call void @llvm.lifetime.end.p0(i64 4, ptr %14) #21
  call void @llvm.lifetime.end.p0(i64 8, ptr %13) #21
  ret i64 %178
}