; Function Attrs: nounwind sspstrong uwtable
define internal i64 @vm_invoke_symbol_block(ptr noundef %0, ptr noundef %1, ptr noundef %2, ptr noundef %3, i1 zeroext %4, i64 noundef %5) unnamed_addr #2 {
  %7 = ptrtoint ptr %3 to i64
  %8 = and i64 %7, 1
  %.not.i.not.i = icmp eq i64 %8, 0
  br i1 %.not.i.not.i, label %12, label %9

9:                                                ; preds = %6
  %10 = trunc i64 %7 to i32
  %11 = lshr i32 %10, 16
  br label %vm_ci_flag.exit

12:                                               ; preds = %6
  %13 = getelementptr inbounds nuw i8, ptr %3, i64 24
  %14 = load i64, ptr %13, align 8, !tbaa !169
  %15 = trunc i64 %14 to i32
  br label %vm_ci_flag.exit

vm_ci_flag.exit:                                  ; preds = %9, %12
  %.0.i = phi i32 [ %11, %9 ], [ %15, %12 ]
  %16 = and i32 %.0.i, 16
  %.not = icmp eq i32 %16, 0
  %17 = getelementptr inbounds nuw i8, ptr %2, i64 32
  %18 = load i32, ptr %17, align 8, !tbaa !213
  br i1 %.not, label %19, label %.critedge

19:                                               ; preds = %vm_ci_flag.exit
  switch i32 %18, label %22 [
    i32 0, label %.critedge50
    i32 1, label %20
  ]

20:                                               ; preds = %19
  %21 = and i32 %.0.i, 65
  %.not43 = icmp eq i32 %21, 0
  br i1 %.not43, label %.thread, label %.critedge50

22:                                               ; preds = %19
  %.pre53 = and i32 %.0.i, 65
  %23 = icmp ne i32 %.pre53, 65
  %24 = icmp ne i32 %18, 2
  %or.cond48 = or i1 %23, %24
  br i1 %or.cond48, label %.thread, label %.critedge50

.thread:                                          ; preds = %20, %22
  %25 = and i32 %.0.i, 32
  %.not46 = icmp eq i32 %25, 0
  br i1 %.not46, label %.critedge, label %vm_ci_kwarg.exit

vm_ci_kwarg.exit:                                 ; preds = %.thread
  tail call void @llvm.assume(i1 %.not.i.not.i)
  %26 = getelementptr inbounds nuw i8, ptr %3, i64 8
  %27 = load ptr, ptr %26, align 8, !tbaa !223
  %28 = load i32, ptr %27, align 8, !tbaa !139
  %29 = icmp eq i32 %28, %18
  br i1 %29, label %.critedge50, label %.critedge, !prof !176

.critedge50:                                      ; preds = %20, %19, %22, %vm_ci_kwarg.exit
  tail call fastcc void @CALLER_SETUP_ARG(ptr noundef %1, ptr noundef nonnull %2, ptr noundef %3, i32 noundef -2)
  %30 = getelementptr inbounds nuw i8, ptr %2, i64 40
  %31 = load i64, ptr %30, align 8, !tbaa !513
  %.not47 = icmp eq i64 %31, 0
  br i1 %.not47, label %41, label %32, !prof !69

32:                                               ; preds = %.critedge50
  %33 = tail call i64 @rb_ary_shift(i64 noundef %31) #21
  %34 = getelementptr inbounds nuw i8, ptr %2, i64 24
  store i64 %33, ptr %34, align 8, !tbaa !212
  %35 = getelementptr inbounds nuw i8, ptr %1, i64 8
  %36 = load ptr, ptr %35, align 8, !tbaa !93
  %37 = getelementptr i8, ptr %36, i64 8
  store ptr %37, ptr %35, align 8, !tbaa !93
  %38 = getelementptr i8, ptr %36, i64 -8
  %39 = load i64, ptr %38, align 8, !tbaa !7
  store i64 %39, ptr %36, align 8, !tbaa !7
  %40 = load i64, ptr %34, align 8, !tbaa !212
  store i64 %40, ptr %38, align 8, !tbaa !7
  br label %56

41:                                               ; preds = %.critedge50
  %42 = load i32, ptr %17, align 8, !tbaa !213
  %43 = icmp slt i32 %42, 1
  br i1 %43, label %44, label %46

44:                                               ; preds = %41
  %45 = load i64, ptr @rb_eArgError, align 8, !tbaa !7
  tail call void (i64, ptr, ...) @rb_raise(i64 noundef %45, ptr noundef nonnull @.str.161) #37
  unreachable

46:                                               ; preds = %41
  %47 = getelementptr inbounds nuw i8, ptr %1, i64 8
  %48 = load ptr, ptr %47, align 8, !tbaa !93
  %49 = add nsw i32 %42, -1
  store i32 %49, ptr %17, align 8, !tbaa !213
  %50 = zext nneg i32 %49 to i64
  %51 = sub nsw i64 0, %50
  %52 = getelementptr i64, ptr %48, i64 %51
  %53 = getelementptr i8, ptr %52, i64 -8
  %54 = load i64, ptr %53, align 8, !tbaa !7
  %55 = getelementptr inbounds nuw i8, ptr %2, i64 24
  store i64 %54, ptr %55, align 8, !tbaa !212
  br label %56

56:                                               ; preds = %46, %32
  %.0 = phi i32 [ 1, %32 ], [ 0, %46 ]
  %57 = getelementptr inbounds nuw i8, ptr %2, i64 36
  %58 = load i8, ptr %57, align 4, !tbaa !214, !range !258, !noundef !60
  %59 = trunc nuw i8 %58 to i1
  %60 = or disjoint i32 %.0, 64
  %spec.select = select i1 %59, i32 %60, i32 %.0
  br label %75

.critedge:                                        ; preds = %vm_ci_flag.exit, %.thread, %vm_ci_kwarg.exit
  %61 = icmp slt i32 %18, 1
  br i1 %61, label %62, label %64

62:                                               ; preds = %.critedge
  %63 = load i64, ptr @rb_eArgError, align 8, !tbaa !7
  tail call void (i64, ptr, ...) @rb_raise(i64 noundef %63, ptr noundef nonnull @.str.161) #37
  unreachable

64:                                               ; preds = %.critedge
  %65 = getelementptr inbounds nuw i8, ptr %2, i64 32
  %66 = getelementptr inbounds nuw i8, ptr %1, i64 8
  %67 = load ptr, ptr %66, align 8, !tbaa !93
  %68 = add nsw i32 %18, -1
  store i32 %68, ptr %65, align 8, !tbaa !213
  %69 = zext nneg i32 %68 to i64
  %70 = sub nsw i64 0, %69
  %71 = getelementptr i64, ptr %67, i64 %70
  %72 = getelementptr i8, ptr %71, i64 -8
  %73 = load i64, ptr %72, align 8, !tbaa !7
  %74 = getelementptr inbounds nuw i8, ptr %2, i64 24
  store i64 %73, ptr %74, align 8, !tbaa !212
  br label %75

75:                                               ; preds = %56, %64
  %.1 = phi i32 [ %.0.i, %64 ], [ %spec.select, %56 ]
  %76 = tail call fastcc i64 @vm_call_symbol(ptr noundef %0, ptr noundef nonnull %1, ptr noundef nonnull %2, ptr noundef %3, i64 noundef %5, i32 noundef %.1)
  ret i64 %76
}